target datalayout = "e-m:e-p270:32:32-p271:32:32-p272:64:64-i64:64-i128:128-f80:128-n8:16:32:64-S128"
target triple = "x86_64-pc-linux-gnu"

%struct._zend_fcall_info = type { i64, %struct._zval_struct, ptr, ptr, ptr, i32, ptr }
%struct._zval_struct = type { %union._zend_value, %union.anon, %union.anon.2 }
%union._zend_value = type { i64 }
%union.anon = type { i32 }
%union.anon.2 = type { i32 }

; Function Attrs: nounwind uwtable
define i32 @_call_user_function_impl(ptr noundef %0, ptr noundef %1, ptr noundef %2, i32 noundef %3, ptr noundef %4, ptr noundef %5) #0 {
  %7 = alloca ptr, align 8
  %8 = alloca ptr, align 8
  %9 = alloca ptr, align 8
  %10 = alloca i32, align 4
  %11 = alloca ptr, align 8
  %12 = alloca ptr, align 8
  %13 = alloca %struct._zend_fcall_info, align 8
  %14 = alloca ptr, align 8
  %15 = alloca ptr, align 8
  %16 = alloca ptr, align 8
  %17 = alloca i32, align 4
  store ptr %0, ptr %7, align 8
  store ptr %1, ptr %8, align 8
  store ptr %2, ptr %9, align 8
  store i32 %3, ptr %10, align 4
  store ptr %4, ptr %11, align 8
  store ptr %5, ptr %12, align 8
  %18 = getelementptr inbounds %struct._zend_fcall_info, ptr %13, i32 0, i32 0
  store i64 64, ptr %18, align 8
  %19 = load ptr, ptr %7, align 8
  %20 = icmp ne ptr %19, null
  br i1 %20, label %21, label %26

21:                                               ; preds = %6
  %22 = load ptr, ptr %7, align 8
  %23 = getelementptr inbounds %struct._zval_struct, ptr %22, i32 0, i32 0
  %24 = load ptr, ptr %23, align 8
  %25 = getelementptr inbounds %struct._zend_fcall_info, ptr %13, i32 0, i32 4
  store ptr %24, ptr %25, align 8
  br label %28

26:                                               ; preds = %6
  %27 = getelementptr inbounds %struct._zend_fcall_info, ptr %13, i32 0, i32 4
  store ptr null, ptr %27, align 8
  br label %28

28:                                               ; preds = %26, %21
  br label %29

29:                                               ; preds = %28
  %30 = getelementptr inbounds %struct._zend_fcall_info, ptr %13, i32 0, i32 1
  store ptr %30, ptr %14, align 8
  %31 = load ptr, ptr %8, align 8
  store ptr %31, ptr %15, align 8
  %32 = load ptr, ptr %15, align 8
  %33 = getelementptr inbounds %struct._zval_struct, ptr %32, i32 0, i32 0
  %34 = load ptr, ptr %33, align 8
  store ptr %34, ptr %16, align 8
  %35 = load ptr, ptr %15, align 8
  %36 = getelementptr inbounds %struct._zval_struct, ptr %35, i32 0, i32 1
  %37 = load i32, ptr %36, align 8
  store i32 %37, ptr %17, align 4
  br label %38

38:                                               ; preds = %29
  %39 = load ptr, ptr %16, align 8
  %40 = load ptr, ptr %14, align 8
  %41 = getelementptr inbounds %struct._zval_struct, ptr %40, i32 0, i32 0
  store ptr %39, ptr %41, align 8
  %42 = load i32, ptr %17, align 4
  %43 = load ptr, ptr %14, align 8
  %44 = getelementptr inbounds %struct._zval_struct, ptr %43, i32 0, i32 1
  store i32 %42, ptr %44, align 8
  br label %45

45:                                               ; preds = %38
  br label %46

46:                                               ; preds = %45
  %47 = load ptr, ptr %9, align 8
  %48 = getelementptr inbounds %struct._zend_fcall_info, ptr %13, i32 0, i32 2
  store ptr %47, ptr %48, align 8
  %49 = load i32, ptr %10, align 4
  %50 = getelementptr inbounds %struct._zend_fcall_info, ptr %13, i32 0, i32 5
  store i32 %49, ptr %50, align 8
  %51 = load ptr, ptr %11, align 8
  %52 = getelementptr inbounds %struct._zend_fcall_info, ptr %13, i32 0, i32 3
  store ptr %51, ptr %52, align 8
  %53 = load ptr, ptr %12, align 8
  %54 = getelementptr inbounds %struct._zend_fcall_info, ptr %13, i32 0, i32 6
  store ptr %53, ptr %54, align 8
  %55 = call i32 @zend_call_function(ptr noundef %13, ptr noundef null)
  ret i32 %55
}