; Function Attrs: nounwind uwtable
define noundef i32 @_call_user_function_impl(ptr noundef readonly %0, ptr nocapture noundef readonly %1, ptr noundef %2, i32 noundef %3, ptr noundef %4, ptr noundef %5) local_unnamed_addr #0 {
  %7 = alloca %struct._zend_fcall_info, align 8
  store i64 64, ptr %7, align 8
  %.not = icmp eq ptr %0, null
  br i1 %.not, label %10, label %8

8:                                                ; preds = %6
  %9 = load ptr, ptr %0, align 8
  br label %10

10:                                               ; preds = %6, %8
  %.sink = phi ptr [ %9, %8 ], [ null, %6 ]
  %11 = getelementptr inbounds i8, ptr %7, i64 40
  store ptr %.sink, ptr %11, align 8
  %12 = getelementptr inbounds i8, ptr %7, i64 8
  %13 = load ptr, ptr %1, align 8
  %14 = getelementptr inbounds i8, ptr %1, i64 8
  %15 = load i32, ptr %14, align 8
  store ptr %13, ptr %12, align 8
  %16 = getelementptr inbounds i8, ptr %7, i64 16
  store i32 %15, ptr %16, align 8
  %17 = getelementptr inbounds i8, ptr %7, i64 24
  store ptr %2, ptr %17, align 8
  %18 = getelementptr inbounds i8, ptr %7, i64 48
  store i32 %3, ptr %18, align 8
  %19 = getelementptr inbounds i8, ptr %7, i64 32
  store ptr %4, ptr %19, align 8
  %20 = getelementptr inbounds i8, ptr %7, i64 56
  store ptr %5, ptr %20, align 8
  %21 = call i32 @zend_call_function(ptr noundef nonnull %7, ptr noundef null), !range !4
  ret i32 %21
}